; Function Attrs: nounwind uwtable
define ptr @l_Lean_Compiler_LCNF_normParam___rarg(i8 noundef zeroext %0, ptr noundef %1, ptr noundef %2, ptr noundef %3, ptr noundef %4) local_unnamed_addr #2 {
  %6 = getelementptr inbounds nuw i8, ptr %2, i64 16
  %7 = load ptr, ptr %6, align 8, !tbaa !4
  %8 = ptrtoint ptr %7 to i64
  %9 = and i64 %8, 1
  %.not = icmp eq i64 %9, 0
  br i1 %.not, label %10, label %lean_inc.exit23

10:                                               ; preds = %5
  %.val.i = load i32, ptr %7, align 4, !tbaa !8
  %11 = icmp sgt i32 %.val.i, 0
  br i1 %11, label %12, label %14, !prof !11

12:                                               ; preds = %10
  %13 = add nuw i32 %.val.i, 1
  store i32 %13, ptr %7, align 4, !tbaa !8
  br label %lean_inc.exit23

14:                                               ; preds = %10
  %.not.i = icmp eq i32 %.val.i, 0
  br i1 %.not.i, label %lean_inc.exit23, label %15

15:                                               ; preds = %14
  tail call void @lean_inc_ref_cold(ptr noundef nonnull %7) #6
  br label %lean_inc.exit23

lean_inc.exit23:                                  ; preds = %15, %14, %12, %5
  %16 = getelementptr inbounds nuw i8, ptr %4, i64 24
  %17 = load ptr, ptr %16, align 8, !tbaa !4
  %18 = ptrtoint ptr %17 to i64
  %19 = and i64 %18, 1
  %.not31 = icmp eq i64 %19, 0
  br i1 %.not31, label %20, label %lean_inc.exit22

20:                                               ; preds = %lean_inc.exit23
  %.val.i24 = load i32, ptr %17, align 4, !tbaa !8
  %21 = icmp sgt i32 %.val.i24, 0
  br i1 %21, label %22, label %24, !prof !11

22:                                               ; preds = %20
  %23 = add nuw i32 %.val.i24, 1
  store i32 %23, ptr %17, align 4, !tbaa !8
  br label %lean_inc.exit22

24:                                               ; preds = %20
  %.not.i25 = icmp eq i32 %.val.i24, 0
  br i1 %.not.i25, label %lean_inc.exit22, label %25

25:                                               ; preds = %24
  tail call void @lean_inc_ref_cold(ptr noundef nonnull %17) #6
  br label %lean_inc.exit22

lean_inc.exit22:                                  ; preds = %25, %24, %22, %lean_inc.exit23
  tail call void @lean_inc_heartbeat() #6
  %26 = tail call noalias ptr @mi_malloc_small(i64 noundef 48) #6
  %27 = icmp eq ptr %26, null
  br i1 %27, label %28, label %lean_alloc_closure.exit

28:                                               ; preds = %lean_inc.exit22
  tail call void @lean_internal_panic_out_of_memory() #7
  unreachable

lean_alloc_closure.exit:                          ; preds = %lean_inc.exit22
  %29 = zext i8 %0 to i64
  %30 = shl nuw nsw i64 %29, 1
  %31 = or disjoint i64 %30, 1
  %32 = inttoptr i64 %31 to ptr
  %33 = getelementptr inbounds nuw i8, ptr %26, i64 4
  store i32 1, ptr %26, align 4, !tbaa !8
  store i32 -184549328, ptr %33, align 4
  %34 = getelementptr inbounds nuw i8, ptr %26, i64 8
  store ptr @l_Lean_Compiler_LCNF_normExpr___rarg___lambda__1___boxed, ptr %34, align 8, !tbaa !4
  %35 = getelementptr inbounds nuw i8, ptr %26, i64 16
  store i16 4, ptr %35, align 8, !tbaa !12
  %36 = getelementptr inbounds nuw i8, ptr %26, i64 18
  store i16 3, ptr %36, align 2, !tbaa !12
  %37 = getelementptr inbounds nuw i8, ptr %26, i64 24
  store ptr %2, ptr %37, align 8, !tbaa !4
  %38 = getelementptr inbounds nuw i8, ptr %26, i64 32
  store ptr %32, ptr %38, align 8, !tbaa !4
  %39 = getelementptr inbounds nuw i8, ptr %26, i64 40
  store ptr %17, ptr %39, align 8, !tbaa !4
  br i1 %.not, label %40, label %lean_inc.exit

40:                                               ; preds = %lean_alloc_closure.exit
  %.val.i27 = load i32, ptr %7, align 4, !tbaa !8
  %41 = icmp sgt i32 %.val.i27, 0
  br i1 %41, label %42, label %44, !prof !11

42:                                               ; preds = %40
  %43 = add nuw i32 %.val.i27, 1
  store i32 %43, ptr %7, align 4, !tbaa !8
  br label %lean_inc.exit

44:                                               ; preds = %40
  %.not.i28 = icmp eq i32 %.val.i27, 0
  br i1 %.not.i28, label %lean_inc.exit, label %45

45:                                               ; preds = %44
  tail call void @lean_inc_ref_cold(ptr noundef nonnull %7) #6
  br label %lean_inc.exit

lean_inc.exit:                                    ; preds = %45, %44, %42, %lean_alloc_closure.exit
  %46 = tail call ptr @lean_apply_4(ptr noundef %7, ptr noundef nonnull inttoptr (i64 1 to ptr), ptr noundef nonnull inttoptr (i64 1 to ptr), ptr noundef %3, ptr noundef nonnull %26) #6
  tail call void @lean_inc_heartbeat() #6
  %47 = tail call noalias ptr @mi_malloc_small(i64 noundef 40) #6
  %48 = icmp eq ptr %47, null
  br i1 %48, label %49, label %lean_alloc_closure.exit30

49:                                               ; preds = %lean_inc.exit
  tail call void @lean_internal_panic_out_of_memory() #7
  unreachable

lean_alloc_closure.exit30:                        ; preds = %lean_inc.exit
  %50 = getelementptr inbounds nuw i8, ptr %47, i64 4
  store i32 1, ptr %47, align 4, !tbaa !8
  store i32 -184549336, ptr %50, align 4
  %51 = getelementptr inbounds nuw i8, ptr %47, i64 8
  store ptr @l_Lean_Compiler_LCNF_normParam___rarg___lambda__1, ptr %51, align 8, !tbaa !4
  %52 = getelementptr inbounds nuw i8, ptr %47, i64 16
  store i16 3, ptr %52, align 8, !tbaa !12
  %53 = getelementptr inbounds nuw i8, ptr %47, i64 18
  store i16 2, ptr %53, align 2, !tbaa !12
  %54 = getelementptr inbounds nuw i8, ptr %47, i64 24
  store ptr %4, ptr %54, align 8, !tbaa !4
  %55 = getelementptr inbounds nuw i8, ptr %47, i64 32
  store ptr %1, ptr %55, align 8, !tbaa !4
  %56 = tail call ptr @lean_apply_4(ptr noundef %7, ptr noundef nonnull inttoptr (i64 1 to ptr), ptr noundef nonnull inttoptr (i64 1 to ptr), ptr noundef %46, ptr noundef nonnull %47) #6
  ret ptr %56
}